target datalayout = "e-m:e-p270:32:32-p271:32:32-p272:64:64-i64:64-i128:128-f80:128-n8:16:32:64-S128"
target triple = "x86_64-unknown-linux-gnu"

%"class.facebook::velox::common::Filter" = type { %"class.facebook::velox::ISerializable", i8, i8, i32 }
%"class.facebook::velox::ISerializable" = type { ptr }
%"class.facebook::velox::common::BigintValuesUsingBitmask" = type { %"class.facebook::velox::common::Filter", %"class.std::vector.100", i64, i64 }
%"class.std::vector.100" = type { %"struct.std::_Bvector_base" }
%"struct.std::_Bvector_base" = type { %"struct.std::_Bvector_base<std::allocator<bool>>::_Bvector_impl" }
%"struct.std::_Bvector_base<std::allocator<bool>>::_Bvector_impl" = type { %"struct.std::_Bvector_base<std::allocator<bool>>::_Bvector_impl_data" }
%"struct.std::_Bvector_base<std::allocator<bool>>::_Bvector_impl_data" = type { %"struct.std::_Bit_iterator", %"struct.std::_Bit_iterator", ptr }
%"struct.std::_Bit_iterator" = type { %"struct.std::_Bit_iterator_base.base", [4 x i8] }
%"struct.std::_Bit_iterator_base.base" = type <{ ptr, i32 }>
%"struct.std::_Bit_const_iterator" = type { %"struct.std::_Bit_iterator_base.base", [4 x i8] }
%"struct.std::_Bit_reference" = type { ptr, i64 }
%"struct.std::_Bit_iterator_base" = type <{ ptr, i32, [4 x i8] }>

; Function Attrs: mustprogress nounwind uwtable
define linkonce_odr void @_ZNSt18_Bit_iterator_base7_M_incrEl(ptr noundef nonnull align 8 dereferenceable(12) %this, i64 noundef %__i) #3 comdat align 2 {
entry:
  %this.addr = alloca ptr, align 8
  %__i.addr = alloca i64, align 8
  %__n = alloca i64, align 8
  store ptr %this, ptr %this.addr, align 8
  store i64 %__i, ptr %__i.addr, align 8
  %this1 = load ptr, ptr %this.addr, align 8
  %0 = load i64, ptr %__i.addr, align 8
  %_M_offset = getelementptr inbounds %"struct.std::_Bit_iterator_base", ptr %this1, i32 0, i32 1
  %1 = load i32, ptr %_M_offset, align 8
  %conv = zext i32 %1 to i64
  %add = add nsw i64 %0, %conv
  store i64 %add, ptr %__n, align 8
  %2 = load i64, ptr %__n, align 8
  %div = sdiv i64 %2, 64
  %_M_p = getelementptr inbounds %"struct.std::_Bit_iterator_base", ptr %this1, i32 0, i32 0
  %3 = load ptr, ptr %_M_p, align 8
  %add.ptr = getelementptr inbounds i64, ptr %3, i64 %div
  store ptr %add.ptr, ptr %_M_p, align 8
  %4 = load i64, ptr %__n, align 8
  %rem = srem i64 %4, 64
  store i64 %rem, ptr %__n, align 8
  %5 = load i64, ptr %__n, align 8
  %cmp = icmp slt i64 %5, 0
  br i1 %cmp, label %if.then, label %if.end

if.then:                                          ; preds = %entry
  %6 = load i64, ptr %__n, align 8
  %add2 = add nsw i64 %6, 64
  store i64 %add2, ptr %__n, align 8
  %_M_p3 = getelementptr inbounds %"struct.std::_Bit_iterator_base", ptr %this1, i32 0, i32 0
  %7 = load ptr, ptr %_M_p3, align 8
  %incdec.ptr = getelementptr inbounds i64, ptr %7, i32 -1
  store ptr %incdec.ptr, ptr %_M_p3, align 8
  br label %if.end

if.end:                                           ; preds = %if.then, %entry
  %8 = load i64, ptr %__n, align 8
  %conv4 = trunc i64 %8 to i32
  %_M_offset5 = getelementptr inbounds %"struct.std::_Bit_iterator_base", ptr %this1, i32 0, i32 1
  store i32 %conv4, ptr %_M_offset5, align 8
  ret void
}

; Function Attrs: mustprogress nounwind uwtable
define linkonce_odr noundef zeroext i1 @_ZNKSt14_Bit_referencecvbEv(ptr noundef nonnull align 8 dereferenceable(16) %this) #3 comdat align 2 {
entry:
  %this.addr = alloca ptr, align 8
  store ptr %this, ptr %this.addr, align 8
  %this1 = load ptr, ptr %this.addr, align 8
  %_M_p = getelementptr inbounds %"struct.std::_Bit_reference", ptr %this1, i32 0, i32 0
  %0 = load ptr, ptr %_M_p, align 8
  %1 = load i64, ptr %0, align 8
  %_M_mask = getelementptr inbounds %"struct.std::_Bit_reference", ptr %this1, i32 0, i32 1
  %2 = load i64, ptr %_M_mask, align 8
  %and = and i64 %1, %2
  %tobool = icmp ne i64 %and, 0
  %lnot = xor i1 %tobool, true
  %lnot2 = xor i1 %lnot, true
  ret i1 %lnot2
}

; Function Attrs: mustprogress nounwind uwtable
define linkonce_odr void @_ZNSt14_Bit_referenceC2EPmm(ptr noundef nonnull align 8 dereferenceable(16) %this, ptr noundef %__x, i64 noundef %__y) unnamed_addr #3 comdat align 2 {
entry:
  %this.addr = alloca ptr, align 8
  %__x.addr = alloca ptr, align 8
  %__y.addr = alloca i64, align 8
  store ptr %this, ptr %this.addr, align 8
  store ptr %__x, ptr %__x.addr, align 8
  store i64 %__y, ptr %__y.addr, align 8
  %this1 = load ptr, ptr %this.addr, align 8
  %_M_p = getelementptr inbounds %"struct.std::_Bit_reference", ptr %this1, i32 0, i32 0
  %0 = load ptr, ptr %__x.addr, align 8
  store ptr %0, ptr %_M_p, align 8
  %_M_mask = getelementptr inbounds %"struct.std::_Bit_reference", ptr %this1, i32 0, i32 1
  %1 = load i64, ptr %__y.addr, align 8
  store i64 %1, ptr %_M_mask, align 8
  ret void
}

; Function Attrs: mustprogress nounwind uwtable
define linkonce_odr noundef nonnull align 8 dereferenceable(12) ptr @_ZNSt19_Bit_const_iteratorpLEl(ptr noundef nonnull align 8 dereferenceable(12) %this, i64 noundef %__i) #3 comdat align 2 {
entry:
  %this.addr = alloca ptr, align 8
  %__i.addr = alloca i64, align 8
  store ptr %this, ptr %this.addr, align 8
  store i64 %__i, ptr %__i.addr, align 8
  %this1 = load ptr, ptr %this.addr, align 8
  %0 = load i64, ptr %__i.addr, align 8
  call void @_ZNSt18_Bit_iterator_base7_M_incrEl(ptr noundef nonnull align 8 dereferenceable(12) %this1, i64 noundef %0)
  ret ptr %this1
}

; Function Attrs: mustprogress nounwind uwtable
define linkonce_odr void @_ZNSt18_Bit_iterator_baseC2EPmj(ptr noundef nonnull align 8 dereferenceable(12) %this, ptr noundef %__x, i32 noundef %__y) unnamed_addr #3 comdat align 2 {
entry:
  %this.addr = alloca ptr, align 8
  %__x.addr = alloca ptr, align 8
  %__y.addr = alloca i32, align 4
  store ptr %this, ptr %this.addr, align 8
  store ptr %__x, ptr %__x.addr, align 8
  store i32 %__y, ptr %__y.addr, align 4
  %this1 = load ptr, ptr %this.addr, align 8
  %_M_p = getelementptr inbounds %"struct.std::_Bit_iterator_base", ptr %this1, i32 0, i32 0
  %0 = load ptr, ptr %__x.addr, align 8
  store ptr %0, ptr %_M_p, align 8
  %_M_offset = getelementptr inbounds %"struct.std::_Bit_iterator_base", ptr %this1, i32 0, i32 1
  %1 = load i32, ptr %__y.addr, align 4
  store i32 %1, ptr %_M_offset, align 8
  ret void
}

; Function Attrs: mustprogress uwtable
define linkonce_odr noundef zeroext i1 @_ZNKSt19_Bit_const_iteratordeEv(ptr noundef nonnull align 8 dereferenceable(12) %this) #0 comdat align 2 {
entry:
  %this.addr = alloca ptr, align 8
  %ref.tmp = alloca %"struct.std::_Bit_reference", align 8
  store ptr %this, ptr %this.addr, align 8
  %this1 = load ptr, ptr %this.addr, align 8
  %_M_p = getelementptr inbounds %"struct.std::_Bit_iterator_base", ptr %this1, i32 0, i32 0
  %0 = load ptr, ptr %_M_p, align 8
  %_M_offset = getelementptr inbounds %"struct.std::_Bit_iterator_base", ptr %this1, i32 0, i32 1
  %1 = load i32, ptr %_M_offset, align 8
  %sh_prom = zext i32 %1 to i64
  %shl = shl i64 1, %sh_prom
  call void @_ZNSt14_Bit_referenceC2EPmm(ptr noundef nonnull align 8 dereferenceable(16) %ref.tmp, ptr noundef %0, i64 noundef %shl)
  %call = call noundef zeroext i1 @_ZNKSt14_Bit_referencecvbEv(ptr noundef nonnull align 8 dereferenceable(16) %ref.tmp) #13
  ret i1 %call
}

; Function Attrs: mustprogress uwtable
define linkonce_odr { ptr, i32 } @_ZStplRKSt19_Bit_const_iteratorl(ptr noundef nonnull align 8 dereferenceable(12) %__x, i64 noundef %__n) #0 comdat {
entry:
  %retval = alloca %"struct.std::_Bit_const_iterator", align 8
  %__x.addr = alloca ptr, align 8
  %__n.addr = alloca i64, align 8
  store ptr %__x, ptr %__x.addr, align 8
  store i64 %__n, ptr %__n.addr, align 8
  %0 = load ptr, ptr %__x.addr, align 8
  call void @llvm.memcpy.p0.p0.i64(ptr align 8 %retval, ptr align 8 %0, i64 16, i1 false)
  %1 = load i64, ptr %__n.addr, align 8
  %call = call noundef nonnull align 8 dereferenceable(12) ptr @_ZNSt19_Bit_const_iteratorpLEl(ptr noundef nonnull align 8 dereferenceable(12) %retval, i64 noundef %1)
  %2 = load { ptr, i32 }, ptr %retval, align 8
  ret { ptr, i32 } %2
}

; Function Attrs: noreturn nounwind uwtable
define linkonce_odr hidden void @__clang_call_terminate(ptr noundef %0) #10 comdat {
  %2 = call ptr @__cxa_begin_catch(ptr %0) #13
  call void @_ZSt9terminatev() #33
  unreachable
}

; Function Attrs: mustprogress nounwind uwtable
define linkonce_odr void @_ZNSt19_Bit_const_iteratorC2EPmj(ptr noundef nonnull align 8 dereferenceable(12) %this, ptr noundef %__x, i32 noundef %__y) unnamed_addr #3 comdat align 2 {
entry:
  %this.addr = alloca ptr, align 8
  %__x.addr = alloca ptr, align 8
  %__y.addr = alloca i32, align 4
  store ptr %this, ptr %this.addr, align 8
  store ptr %__x, ptr %__x.addr, align 8
  store i32 %__y, ptr %__y.addr, align 4
  %this1 = load ptr, ptr %this.addr, align 8
  %0 = load ptr, ptr %__x.addr, align 8
  %1 = load i32, ptr %__y.addr, align 4
  call void @_ZNSt18_Bit_iterator_baseC2EPmj(ptr noundef nonnull align 8 dereferenceable(12) %this1, ptr noundef %0, i32 noundef %1)
  ret void
}

; Function Attrs: mustprogress uwtable
define linkonce_odr noundef zeroext i1 @_ZNKSt19_Bit_const_iteratorixEl(ptr noundef nonnull align 8 dereferenceable(12) %this, i64 noundef %__i) #0 comdat align 2 {
entry:
  %this.addr = alloca ptr, align 8
  %__i.addr = alloca i64, align 8
  %ref.tmp = alloca %"struct.std::_Bit_const_iterator", align 8
  store ptr %this, ptr %this.addr, align 8
  store i64 %__i, ptr %__i.addr, align 8
  %this1 = load ptr, ptr %this.addr, align 8
  %0 = load i64, ptr %__i.addr, align 8
  %call = call { ptr, i32 } @_ZStplRKSt19_Bit_const_iteratorl(ptr noundef nonnull align 8 dereferenceable(12) %this1, i64 noundef %0)
  %1 = getelementptr inbounds { ptr, i32 }, ptr %ref.tmp, i32 0, i32 0
  %2 = extractvalue { ptr, i32 } %call, 0
  store ptr %2, ptr %1, align 8
  %3 = getelementptr inbounds { ptr, i32 }, ptr %ref.tmp, i32 0, i32 1
  %4 = extractvalue { ptr, i32 } %call, 1
  store i32 %4, ptr %3, align 8
  %call2 = call noundef zeroext i1 @_ZNKSt19_Bit_const_iteratordeEv(ptr noundef nonnull align 8 dereferenceable(12) %ref.tmp)
  ret i1 %call2
}

; Function Attrs: mustprogress nounwind uwtable
define linkonce_odr { ptr, i32 } @_ZNKSt6vectorIbSaIbEE5beginEv(ptr noundef nonnull align 8 dereferenceable(40) %this) #3 comdat align 2 personality ptr @__gxx_personality_v0 {
entry:
  %retval = alloca %"struct.std::_Bit_const_iterator", align 8
  %this.addr = alloca ptr, align 8
  store ptr %this, ptr %this.addr, align 8
  %this1 = load ptr, ptr %this.addr, align 8
  %_M_impl = getelementptr inbounds %"struct.std::_Bvector_base", ptr %this1, i32 0, i32 0
  %_M_start = getelementptr inbounds %"struct.std::_Bvector_base<std::allocator<bool>>::_Bvector_impl_data", ptr %_M_impl, i32 0, i32 0
  %_M_p = getelementptr inbounds %"struct.std::_Bit_iterator_base", ptr %_M_start, i32 0, i32 0
  %0 = load ptr, ptr %_M_p, align 8
  invoke void @_ZNSt19_Bit_const_iteratorC2EPmj(ptr noundef nonnull align 8 dereferenceable(12) %retval, ptr noundef %0, i32 noundef 0)
          to label %invoke.cont unwind label %terminate.lpad

invoke.cont:                                      ; preds = %entry
  %1 = load { ptr, i32 }, ptr %retval, align 8
  ret { ptr, i32 } %1

terminate.lpad:                                   ; preds = %entry
  %2 = landingpad { ptr, i32 }
          catch ptr null
  %3 = extractvalue { ptr, i32 } %2, 0
  call void @__clang_call_terminate(ptr %3) #33
  unreachable
}

; Function Attrs: mustprogress uwtable
define linkonce_odr noundef zeroext i1 @_ZNKSt6vectorIbSaIbEEixEm(ptr noundef nonnull align 8 dereferenceable(40) %this, i64 noundef %__n) #0 comdat align 2 {
entry:
  %this.addr = alloca ptr, align 8
  %__n.addr = alloca i64, align 8
  %ref.tmp = alloca %"struct.std::_Bit_const_iterator", align 8
  store ptr %this, ptr %this.addr, align 8
  store i64 %__n, ptr %__n.addr, align 8
  %this1 = load ptr, ptr %this.addr, align 8
  %call = call { ptr, i32 } @_ZNKSt6vectorIbSaIbEE5beginEv(ptr noundef nonnull align 8 dereferenceable(40) %this1) #13
  %0 = getelementptr inbounds { ptr, i32 }, ptr %ref.tmp, i32 0, i32 0
  %1 = extractvalue { ptr, i32 } %call, 0
  store ptr %1, ptr %0, align 8
  %2 = getelementptr inbounds { ptr, i32 }, ptr %ref.tmp, i32 0, i32 1
  %3 = extractvalue { ptr, i32 } %call, 1
  store i32 %3, ptr %2, align 8
  %4 = load i64, ptr %__n.addr, align 8
  %call2 = call noundef zeroext i1 @_ZNKSt19_Bit_const_iteratorixEl(ptr noundef nonnull align 8 dereferenceable(12) %ref.tmp, i64 noundef %4)
  ret i1 %call2
}

; Function Attrs: mustprogress uwtable
define noundef zeroext i1 @_ZNK8facebook5velox6common24BigintValuesUsingBitmask9testInt64El(ptr noundef nonnull align 8 dereferenceable(72) %this, i64 noundef %value) unnamed_addr #0 align 2 {
entry:
  %retval = alloca i1, align 1
  %this.addr = alloca ptr, align 8
  %value.addr = alloca i64, align 8
  store ptr %this, ptr %this.addr, align 8
  store i64 %value, ptr %value.addr, align 8
  %this1 = load ptr, ptr %this.addr, align 8
  %0 = load i64, ptr %value.addr, align 8
  %min_ = getelementptr inbounds %"class.facebook::velox::common::BigintValuesUsingBitmask", ptr %this1, i32 0, i32 2
  %1 = load i64, ptr %min_, align 8
  %cmp = icmp slt i64 %0, %1
  br i1 %cmp, label %if.then, label %lor.lhs.false

lor.lhs.false:                                    ; preds = %entry
  %2 = load i64, ptr %value.addr, align 8
  %max_ = getelementptr inbounds %"class.facebook::velox::common::BigintValuesUsingBitmask", ptr %this1, i32 0, i32 3
  %3 = load i64, ptr %max_, align 8
  %cmp2 = icmp sgt i64 %2, %3
  br i1 %cmp2, label %if.then, label %if.end

if.then:                                          ; preds = %lor.lhs.false, %entry
  store i1 false, ptr %retval, align 1
  br label %return

if.end:                                           ; preds = %lor.lhs.false
  %bitmask_ = getelementptr inbounds %"class.facebook::velox::common::BigintValuesUsingBitmask", ptr %this1, i32 0, i32 1
  %4 = load i64, ptr %value.addr, align 8
  %min_3 = getelementptr inbounds %"class.facebook::velox::common::BigintValuesUsingBitmask", ptr %this1, i32 0, i32 2
  %5 = load i64, ptr %min_3, align 8
  %sub = sub nsw i64 %4, %5
  %call = call noundef zeroext i1 @_ZNKSt6vectorIbSaIbEEixEm(ptr noundef nonnull align 8 dereferenceable(40) %bitmask_, i64 noundef %sub)
  store i1 %call, ptr %retval, align 1
  br label %return

return:                                           ; preds = %if.end, %if.then
  %6 = load i1, ptr %retval, align 1
  ret i1 %6
}