; Function Attrs: mustprogress nofree norecurse nosync nounwind willreturn memory(read, inaccessiblemem: none) uwtable
define noundef zeroext i1 @_ZNK8facebook5velox6common24BigintValuesUsingBitmask9testInt64El(ptr nocapture noundef nonnull readonly align 8 dereferenceable(72) %this, i64 noundef %value) unnamed_addr #7 align 2 personality ptr @__gxx_personality_v0 {
entry:
  %min_ = getelementptr inbounds i8, ptr %this, i64 56
  %0 = load i64, ptr %min_, align 8
  %cmp = icmp sgt i64 %0, %value
  %max_ = getelementptr inbounds i8, ptr %this, i64 64
  %1 = load i64, ptr %max_, align 8
  %cmp2 = icmp slt i64 %1, %value
  %or.cond = select i1 %cmp, i1 true, i1 %cmp2
  br i1 %or.cond, label %return, label %if.end

if.end:                                           ; preds = %entry
  %bitmask_ = getelementptr inbounds i8, ptr %this, i64 16
  %sub = sub nsw i64 %value, %0
  %2 = load ptr, ptr %bitmask_, align 8
  %div.i.i.i.i.i = sdiv i64 %sub, 64
  %add.ptr.i.i.i.i.i = getelementptr inbounds i64, ptr %2, i64 %div.i.i.i.i.i
  %3 = and i64 %sub, -9223372036854775745
  %cmp.i.i.i.i.i = icmp ugt i64 %3, -9223372036854775808
  %storemerge.idx.i.i.i.i.i = select i1 %cmp.i.i.i.i.i, i64 -8, i64 0
  %storemerge.i.i.i.i.i = getelementptr inbounds i8, ptr %add.ptr.i.i.i.i.i, i64 %storemerge.idx.i.i.i.i.i
  %conv4.i.i.i.i.i = and i64 %sub, 63
  %shl.i.i.i = shl nuw i64 1, %conv4.i.i.i.i.i
  %4 = load i64, ptr %storemerge.i.i.i.i.i, align 8
  %and.i.i.i.i = and i64 %4, %shl.i.i.i
  %tobool.i.i.i.i = icmp ne i64 %and.i.i.i.i, 0
  br label %return

return:                                           ; preds = %entry, %if.end
  %retval.0 = phi i1 [ %tobool.i.i.i.i, %if.end ], [ false, %entry ]
  ret i1 %retval.0
}